; Function Attrs: nofree norecurse nosync nounwind memory(argmem: readwrite) uwtable
define void @rgb48tobgr64_nobswap(ptr noundef readonly captures(none) %0, ptr noundef writeonly captures(none) %1, i32 noundef %2) local_unnamed_addr #0 {
  %4 = icmp sgt i32 %2, 5
  br i1 %4, label %.lr.ph.preheader, label %._crit_edge

.lr.ph.preheader:                                 ; preds = %3
  %5 = udiv i32 %2, 6
  %wide.trip.count = zext nneg i32 %5 to i64
  br label %.lr.ph

.lr.ph:                                           ; preds = %.lr.ph.preheader, %.lr.ph
  %indvars.iv = phi i64 [ 0, %.lr.ph.preheader ], [ %indvars.iv.next, %.lr.ph ]
  %.idx = mul nuw nsw i64 %indvars.iv, 6
  %6 = getelementptr inbounds nuw i8, ptr %0, i64 %.idx
  %7 = getelementptr inbounds nuw i8, ptr %6, i64 4
  %8 = load i16, ptr %7, align 2, !tbaa !16
  %.idx21 = shl nsw i64 %indvars.iv, 3
  %9 = getelementptr inbounds nuw i8, ptr %1, i64 %.idx21
  store i16 %8, ptr %9, align 2, !tbaa !16
  %10 = getelementptr inbounds nuw i8, ptr %6, i64 2
  %11 = load i16, ptr %10, align 2, !tbaa !16
  %12 = getelementptr inbounds nuw i8, ptr %9, i64 2
  store i16 %11, ptr %12, align 2, !tbaa !16
  %13 = load i16, ptr %6, align 2, !tbaa !16
  %14 = getelementptr inbounds nuw i8, ptr %9, i64 4
  store i16 %13, ptr %14, align 2, !tbaa !16
  %15 = getelementptr inbounds nuw i8, ptr %9, i64 6
  store i16 -1, ptr %15, align 2, !tbaa !16
  %indvars.iv.next = add nuw nsw i64 %indvars.iv, 1
  %exitcond.not = icmp eq i64 %indvars.iv.next, %wide.trip.count
  br i1 %exitcond.not, label %._crit_edge, label %.lr.ph, !llvm.loop !34

._crit_edge:                                      ; preds = %.lr.ph, %3
  ret void
}